; ModuleID = '19/2037.c'
source_filename = "19/2037.c"
target datalayout = "e-m:e-p270:32:32-p271:32:32-p272:64:64-i64:64-f80:128-n8:16:32:64-S128"
target triple = "x86_64-pc-linux-gnu"

@.str = private unnamed_addr constant [5 x i8] c"%s%s\00", align 1
@.str.1 = private unnamed_addr constant [4 x i8] c"%s \00", align 1
@.str.2 = private unnamed_addr constant [3 x i8] c"%s\00", align 1

; Function Attrs: noinline nounwind uwtable
define dso_local i32 @main() #0 {
  %1 = alloca i32, align 4
  %2 = alloca [200 x i8], align 16
  %3 = alloca [100 x i8], align 16
  %4 = alloca [100 x i8], align 16
  %5 = alloca [200 x [200 x i8]], align 16
  %6 = alloca [200 x i8], align 16
  %7 = alloca i32, align 4
  %8 = alloca i32, align 4
  %9 = alloca i32, align 4
  %10 = alloca i32, align 4
  %11 = alloca i32, align 4
  store i32 0, i32* %1, align 4
  store i32 0, i32* %8, align 4
  store i32 0, i32* %10, align 4
  store i32 0, i32* %11, align 4
  %12 = getelementptr inbounds [200 x i8], [200 x i8]* %2, i64 0, i64 0
  %13 = call i32 (i8*, ...) bitcast (i32 (...)* @gets to i32 (i8*, ...)*)(i8* %12)
  store i32 0, i32* %7, align 4
  br label %14

14:                                               ; preds = %29, %0
  %15 = load i32, i32* %7, align 4
  %16 = sext i32 %15 to i64
  %17 = getelementptr inbounds [200 x i8], [200 x i8]* %2, i64 0, i64 %16
  %18 = load i8, i8* %17, align 1
  %19 = sext i8 %18 to i32
  %20 = icmp ne i32 %19, 0
  br i1 %20, label %21, label %32

21:                                               ; preds = %14
  %22 = load i32, i32* %7, align 4
  %23 = sext i32 %22 to i64
  %24 = getelementptr inbounds [200 x i8], [200 x i8]* %2, i64 0, i64 %23
  %25 = load i8, i8* %24, align 1
  %26 = load i32, i32* %7, align 4
  %27 = sext i32 %26 to i64
  %28 = getelementptr inbounds [200 x i8], [200 x i8]* %6, i64 0, i64 %27
  store i8 %25, i8* %28, align 1
  br label %29

29:                                               ; preds = %21
  %30 = load i32, i32* %7, align 4
  %31 = add nsw i32 %30, 1
  store i32 %31, i32* %7, align 4
  br label %14

32:                                               ; preds = %14
  %33 = load i32, i32* %7, align 4
  %34 = sext i32 %33 to i64
  %35 = getelementptr inbounds [200 x i8], [200 x i8]* %6, i64 0, i64 %34
  store i8 32, i8* %35, align 1
  %36 = load i32, i32* %7, align 4
  %37 = add nsw i32 %36, 1
  %38 = sext i32 %37 to i64
  %39 = getelementptr inbounds [200 x i8], [200 x i8]* %6, i64 0, i64 %38
  store i8 0, i8* %39, align 1
  %40 = getelementptr inbounds [100 x i8], [100 x i8]* %3, i64 0, i64 0
  %41 = getelementptr inbounds [100 x i8], [100 x i8]* %4, i64 0, i64 0
  %42 = call i32 (i8*, ...) @__isoc99_scanf(i8* getelementptr inbounds ([5 x i8], [5 x i8]* @.str, i64 0, i64 0), i8* %40, i8* %41)
  store i32 0, i32* %7, align 4
  br label %43

43:                                               ; preds = %53, %32
  %44 = load i32, i32* %7, align 4
  %45 = sext i32 %44 to i64
  %46 = getelementptr inbounds [200 x i8], [200 x i8]* %6, i64 0, i64 %45
  %47 = load i8, i8* %46, align 1
  %48 = sext i8 %47 to i32
  %49 = icmp ne i32 %48, 0
  br i1 %49, label %50, label %56

50:                                               ; preds = %43
  %51 = load i32, i32* %8, align 4
  %52 = add nsw i32 %51, 1
  store i32 %52, i32* %8, align 4
  br label %53

53:                                               ; preds = %50
  %54 = load i32, i32* %7, align 4
  %55 = add nsw i32 %54, 1
  store i32 %55, i32* %7, align 4
  br label %43

56:                                               ; preds = %43
  store i32 0, i32* %7, align 4
  br label %57

57:                                               ; preds = %91, %56
  %58 = load i32, i32* %7, align 4
  %59 = load i32, i32* %8, align 4
  %60 = icmp slt i32 %58, %59
  br i1 %60, label %61, label %94

61:                                               ; preds = %57
  %62 = load i32, i32* %7, align 4
  %63 = sext i32 %62 to i64
  %64 = getelementptr inbounds [200 x i8], [200 x i8]* %6, i64 0, i64 %63
  %65 = load i8, i8* %64, align 1
  %66 = sext i8 %65 to i32
  %67 = icmp eq i32 %66, 32
  br i1 %67, label %68, label %77

68:                                               ; preds = %61
  %69 = load i32, i32* %10, align 4
  %70 = sext i32 %69 to i64
  %71 = getelementptr inbounds [200 x [200 x i8]], [200 x [200 x i8]]* %5, i64 0, i64 %70
  %72 = load i32, i32* %11, align 4
  %73 = sext i32 %72 to i64
  %74 = getelementptr inbounds [200 x i8], [200 x i8]* %71, i64 0, i64 %73
  store i8 0, i8* %74, align 1
  %75 = load i32, i32* %10, align 4
  %76 = add nsw i32 %75, 1
  store i32 %76, i32* %10, align 4
  store i32 0, i32* %11, align 4
  br label %90

77:                                               ; preds = %61
  %78 = load i32, i32* %7, align 4
  %79 = sext i32 %78 to i64
  %80 = getelementptr inbounds [200 x i8], [200 x i8]* %6, i64 0, i64 %79
  %81 = load i8, i8* %80, align 1
  %82 = load i32, i32* %10, align 4
  %83 = sext i32 %82 to i64
  %84 = getelementptr inbounds [200 x [200 x i8]], [200 x [200 x i8]]* %5, i64 0, i64 %83
  %85 = load i32, i32* %11, align 4
  %86 = sext i32 %85 to i64
  %87 = getelementptr inbounds [200 x i8], [200 x i8]* %84, i64 0, i64 %86
  store i8 %81, i8* %87, align 1
  %88 = load i32, i32* %11, align 4
  %89 = add nsw i32 %88, 1
  store i32 %89, i32* %11, align 4
  br label %90

90:                                               ; preds = %77, %68
  br label %91

91:                                               ; preds = %90
  %92 = load i32, i32* %7, align 4
  %93 = add nsw i32 %92, 1
  store i32 %93, i32* %7, align 4
  br label %57

94:                                               ; preds = %57
  %95 = load i32, i32* %10, align 4
  store i32 %95, i32* %9, align 4
  store i32 0, i32* %10, align 4
  br label %96

96:                                               ; preds = %119, %94
  %97 = load i32, i32* %10, align 4
  %98 = load i32, i32* %9, align 4
  %99 = sub nsw i32 %98, 1
  %100 = icmp slt i32 %97, %99
  br i1 %100, label %101, label %122

101:                                              ; preds = %96
  %102 = load i32, i32* %10, align 4
  %103 = sext i32 %102 to i64
  %104 = getelementptr inbounds [200 x [200 x i8]], [200 x [200 x i8]]* %5, i64 0, i64 %103
  %105 = getelementptr inbounds [200 x i8], [200 x i8]* %104, i64 0, i64 0
  %106 = getelementptr inbounds [100 x i8], [100 x i8]* %3, i64 0, i64 0
  %107 = call i32 @strcmp(i8* %105, i8* %106) #3
  %108 = icmp eq i32 %107, 0
  br i1 %108, label %109, label %112

109:                                              ; preds = %101
  %110 = getelementptr inbounds [100 x i8], [100 x i8]* %4, i64 0, i64 0
  %111 = call i32 (i8*, ...) @printf(i8* getelementptr inbounds ([4 x i8], [4 x i8]* @.str.1, i64 0, i64 0), i8* %110)
  br label %118

112:                                              ; preds = %101
  %113 = load i32, i32* %10, align 4
  %114 = sext i32 %113 to i64
  %115 = getelementptr inbounds [200 x [200 x i8]], [200 x [200 x i8]]* %5, i64 0, i64 %114
  %116 = getelementptr inbounds [200 x i8], [200 x i8]* %115, i64 0, i64 0
  %117 = call i32 (i8*, ...) @printf(i8* getelementptr inbounds ([4 x i8], [4 x i8]* @.str.1, i64 0, i64 0), i8* %116)
  br label %118

118:                                              ; preds = %112, %109
  br label %119

119:                                              ; preds = %118
  %120 = load i32, i32* %10, align 4
  %121 = add nsw i32 %120, 1
  store i32 %121, i32* %10, align 4
  br label %96

122:                                              ; preds = %96
  %123 = load i32, i32* %9, align 4
  %124 = sub nsw i32 %123, 1
  %125 = sext i32 %124 to i64
  %126 = getelementptr inbounds [200 x [200 x i8]], [200 x [200 x i8]]* %5, i64 0, i64 %125
  %127 = getelementptr inbounds [200 x i8], [200 x i8]* %126, i64 0, i64 0
  %128 = getelementptr inbounds [100 x i8], [100 x i8]* %3, i64 0, i64 0
  %129 = call i32 @strcmp(i8* %127, i8* %128) #3
  %130 = icmp eq i32 %129, 0
  br i1 %130, label %131, label %134

131:                                              ; preds = %122
  %132 = getelementptr inbounds [100 x i8], [100 x i8]* %4, i64 0, i64 0
  %133 = call i32 (i8*, ...) @printf(i8* getelementptr inbounds ([3 x i8], [3 x i8]* @.str.2, i64 0, i64 0), i8* %132)
  br label %140

134:                                              ; preds = %122
  %135 = load i32, i32* %10, align 4
  %136 = sext i32 %135 to i64
  %137 = getelementptr inbounds [200 x [200 x i8]], [200 x [200 x i8]]* %5, i64 0, i64 %136
  %138 = getelementptr inbounds [200 x i8], [200 x i8]* %137, i64 0, i64 0
  %139 = call i32 (i8*, ...) @printf(i8* getelementptr inbounds ([3 x i8], [3 x i8]* @.str.2, i64 0, i64 0), i8* %138)
  br label %140

140:                                              ; preds = %134, %131
  ret i32 0
}

declare dso_local i32 @gets(...) #1

declare dso_local i32 @__isoc99_scanf(i8*, ...) #1

; Function Attrs: nounwind readonly
declare dso_local i32 @strcmp(i8*, i8*) #2

declare dso_local i32 @printf(i8*, ...) #1


!llvm.module.flags = !{!0}
!llvm.ident = !{!1}

!0 = !{i32 1, !"wchar_size", i32 4}
!1 = !{!"clang version 10.0.0-4ubuntu1 "}
